; ModuleID = '9/578.c'
source_filename = "9/578.c"
target datalayout = "e-m:e-p270:32:32-p271:32:32-p272:64:64-i64:64-f80:128-n8:16:32:64-S128"
target triple = "x86_64-pc-linux-gnu"

@.str = private unnamed_addr constant [3 x i8] c"%d\00", align 1
@.str.1 = private unnamed_addr constant [6 x i8] c"%s %d\00", align 1
@.str.2 = private unnamed_addr constant [4 x i8] c"%s\0A\00", align 1

; Function Attrs: noinline nounwind uwtable
define dso_local i32 @main() #0 {
  %1 = alloca i32, align 4
  %2 = alloca i32, align 4
  %3 = alloca i32, align 4
  %4 = alloca i32, align 4
  %5 = alloca i32, align 4
  %6 = alloca i32, align 4
  %7 = alloca [100 x [2000 x i8]], align 16
  %8 = alloca [11 x i8], align 1
  %9 = alloca [100 x [2000 x i8]], align 16
  %10 = alloca [100 x i32], align 16
  %11 = alloca [100 x i32], align 16
  store i32 0, i32* %1, align 4
  store i32 0, i32* %6, align 4
  %12 = call i32 (i8*, ...) @__isoc99_scanf(i8* getelementptr inbounds ([3 x i8], [3 x i8]* @.str, i64 0, i64 0), i32* %2)
  store i32 0, i32* %3, align 4
  br label %13

13:                                               ; preds = %27, %0
  %14 = load i32, i32* %3, align 4
  %15 = load i32, i32* %2, align 4
  %16 = sub nsw i32 %15, 1
  %17 = icmp sle i32 %14, %16
  br i1 %17, label %18, label %30

18:                                               ; preds = %13
  %19 = load i32, i32* %3, align 4
  %20 = sext i32 %19 to i64
  %21 = getelementptr inbounds [100 x [2000 x i8]], [100 x [2000 x i8]]* %7, i64 0, i64 %20
  %22 = getelementptr inbounds [2000 x i8], [2000 x i8]* %21, i64 0, i64 0
  %23 = load i32, i32* %3, align 4
  %24 = sext i32 %23 to i64
  %25 = getelementptr inbounds [100 x i32], [100 x i32]* %10, i64 0, i64 %24
  %26 = call i32 (i8*, ...) @__isoc99_scanf(i8* getelementptr inbounds ([6 x i8], [6 x i8]* @.str.1, i64 0, i64 0), i8* %22, i32* %25)
  br label %27

27:                                               ; preds = %18
  %28 = load i32, i32* %3, align 4
  %29 = add nsw i32 %28, 1
  store i32 %29, i32* %3, align 4
  br label %13

30:                                               ; preds = %13
  store i32 0, i32* %3, align 4
  br label %31

31:                                               ; preds = %61, %30
  %32 = load i32, i32* %3, align 4
  %33 = load i32, i32* %2, align 4
  %34 = icmp slt i32 %32, %33
  br i1 %34, label %35, label %64

35:                                               ; preds = %31
  %36 = load i32, i32* %3, align 4
  %37 = sext i32 %36 to i64
  %38 = getelementptr inbounds [100 x i32], [100 x i32]* %10, i64 0, i64 %37
  %39 = load i32, i32* %38, align 4
  %40 = icmp sge i32 %39, 60
  br i1 %40, label %41, label %60

41:                                               ; preds = %35
  %42 = load i32, i32* %3, align 4
  %43 = sext i32 %42 to i64
  %44 = getelementptr inbounds [100 x i32], [100 x i32]* %10, i64 0, i64 %43
  %45 = load i32, i32* %44, align 4
  %46 = load i32, i32* %6, align 4
  %47 = sext i32 %46 to i64
  %48 = getelementptr inbounds [100 x i32], [100 x i32]* %11, i64 0, i64 %47
  store i32 %45, i32* %48, align 4
  %49 = load i32, i32* %6, align 4
  %50 = sext i32 %49 to i64
  %51 = getelementptr inbounds [100 x [2000 x i8]], [100 x [2000 x i8]]* %9, i64 0, i64 %50
  %52 = getelementptr inbounds [2000 x i8], [2000 x i8]* %51, i64 0, i64 0
  %53 = load i32, i32* %3, align 4
  %54 = sext i32 %53 to i64
  %55 = getelementptr inbounds [100 x [2000 x i8]], [100 x [2000 x i8]]* %7, i64 0, i64 %54
  %56 = getelementptr inbounds [2000 x i8], [2000 x i8]* %55, i64 0, i64 0
  %57 = call i8* @strcpy(i8* %52, i8* %56) #3
  %58 = load i32, i32* %6, align 4
  %59 = add nsw i32 %58, 1
  store i32 %59, i32* %6, align 4
  br label %60

60:                                               ; preds = %41, %35
  br label %61

61:                                               ; preds = %60
  %62 = load i32, i32* %3, align 4
  %63 = add nsw i32 %62, 1
  store i32 %63, i32* %3, align 4
  br label %31

64:                                               ; preds = %31
  %65 = load i32, i32* %6, align 4
  %66 = sub nsw i32 %65, 2
  store i32 %66, i32* %4, align 4
  br label %67

67:                                               ; preds = %134, %64
  %68 = load i32, i32* %4, align 4
  %69 = icmp sge i32 %68, 0
  br i1 %69, label %70, label %137

70:                                               ; preds = %67
  %71 = load i32, i32* %4, align 4
  store i32 %71, i32* %3, align 4
  br label %72

72:                                               ; preds = %130, %70
  %73 = load i32, i32* %3, align 4
  %74 = load i32, i32* %6, align 4
  %75 = sub nsw i32 %74, 2
  %76 = icmp sle i32 %73, %75
  br i1 %76, label %77, label %133

77:                                               ; preds = %72
  %78 = load i32, i32* %3, align 4
  %79 = sext i32 %78 to i64
  %80 = getelementptr inbounds [100 x i32], [100 x i32]* %11, i64 0, i64 %79
  %81 = load i32, i32* %80, align 4
  %82 = load i32, i32* %3, align 4
  %83 = add nsw i32 %82, 1
  %84 = sext i32 %83 to i64
  %85 = getelementptr inbounds [100 x i32], [100 x i32]* %11, i64 0, i64 %84
  %86 = load i32, i32* %85, align 4
  %87 = icmp slt i32 %81, %86
  br i1 %87, label %88, label %129

88:                                               ; preds = %77
  %89 = getelementptr inbounds [11 x i8], [11 x i8]* %8, i64 0, i64 0
  %90 = load i32, i32* %3, align 4
  %91 = sext i32 %90 to i64
  %92 = getelementptr inbounds [100 x [2000 x i8]], [100 x [2000 x i8]]* %9, i64 0, i64 %91
  %93 = getelementptr inbounds [2000 x i8], [2000 x i8]* %92, i64 0, i64 0
  %94 = call i8* @strcpy(i8* %89, i8* %93) #3
  %95 = load i32, i32* %3, align 4
  %96 = sext i32 %95 to i64
  %97 = getelementptr inbounds [100 x [2000 x i8]], [100 x [2000 x i8]]* %9, i64 0, i64 %96
  %98 = getelementptr inbounds [2000 x i8], [2000 x i8]* %97, i64 0, i64 0
  %99 = load i32, i32* %3, align 4
  %100 = add nsw i32 %99, 1
  %101 = sext i32 %100 to i64
  %102 = getelementptr inbounds [100 x [2000 x i8]], [100 x [2000 x i8]]* %9, i64 0, i64 %101
  %103 = getelementptr inbounds [2000 x i8], [2000 x i8]* %102, i64 0, i64 0
  %104 = call i8* @strcpy(i8* %98, i8* %103) #3
  %105 = load i32, i32* %3, align 4
  %106 = add nsw i32 %105, 1
  %107 = sext i32 %106 to i64
  %108 = getelementptr inbounds [100 x [2000 x i8]], [100 x [2000 x i8]]* %9, i64 0, i64 %107
  %109 = getelementptr inbounds [2000 x i8], [2000 x i8]* %108, i64 0, i64 0
  %110 = getelementptr inbounds [11 x i8], [11 x i8]* %8, i64 0, i64 0
  %111 = call i8* @strcpy(i8* %109, i8* %110) #3
  %112 = load i32, i32* %3, align 4
  %113 = sext i32 %112 to i64
  %114 = getelementptr inbounds [100 x i32], [100 x i32]* %11, i64 0, i64 %113
  %115 = load i32, i32* %114, align 4
  store i32 %115, i32* %5, align 4
  %116 = load i32, i32* %3, align 4
  %117 = add nsw i32 %116, 1
  %118 = sext i32 %117 to i64
  %119 = getelementptr inbounds [100 x i32], [100 x i32]* %11, i64 0, i64 %118
  %120 = load i32, i32* %119, align 4
  %121 = load i32, i32* %3, align 4
  %122 = sext i32 %121 to i64
  %123 = getelementptr inbounds [100 x i32], [100 x i32]* %11, i64 0, i64 %122
  store i32 %120, i32* %123, align 4
  %124 = load i32, i32* %5, align 4
  %125 = load i32, i32* %3, align 4
  %126 = add nsw i32 %125, 1
  %127 = sext i32 %126 to i64
  %128 = getelementptr inbounds [100 x i32], [100 x i32]* %11, i64 0, i64 %127
  store i32 %124, i32* %128, align 4
  br label %129

129:                                              ; preds = %88, %77
  br label %130

130:                                              ; preds = %129
  %131 = load i32, i32* %3, align 4
  %132 = add nsw i32 %131, 1
  store i32 %132, i32* %3, align 4
  br label %72

133:                                              ; preds = %72
  br label %134

134:                                              ; preds = %133
  %135 = load i32, i32* %4, align 4
  %136 = add nsw i32 %135, -1
  store i32 %136, i32* %4, align 4
  br label %67

137:                                              ; preds = %67
  store i32 0, i32* %3, align 4
  br label %138

138:                                              ; preds = %148, %137
  %139 = load i32, i32* %3, align 4
  %140 = load i32, i32* %6, align 4
  %141 = icmp slt i32 %139, %140
  br i1 %141, label %142, label %151

142:                                              ; preds = %138
  %143 = load i32, i32* %3, align 4
  %144 = sext i32 %143 to i64
  %145 = getelementptr inbounds [100 x [2000 x i8]], [100 x [2000 x i8]]* %9, i64 0, i64 %144
  %146 = getelementptr inbounds [2000 x i8], [2000 x i8]* %145, i64 0, i64 0
  %147 = call i32 (i8*, ...) @printf(i8* getelementptr inbounds ([4 x i8], [4 x i8]* @.str.2, i64 0, i64 0), i8* %146)
  br label %148

148:                                              ; preds = %142
  %149 = load i32, i32* %3, align 4
  %150 = add nsw i32 %149, 1
  store i32 %150, i32* %3, align 4
  br label %138

151:                                              ; preds = %138
  store i32 0, i32* %6, align 4
  store i32 0, i32* %3, align 4
  br label %152

152:                                              ; preds = %182, %151
  %153 = load i32, i32* %3, align 4
  %154 = load i32, i32* %2, align 4
  %155 = icmp slt i32 %153, %154
  br i1 %155, label %156, label %185

156:                                              ; preds = %152
  %157 = load i32, i32* %3, align 4
  %158 = sext i32 %157 to i64
  %159 = getelementptr inbounds [100 x i32], [100 x i32]* %10, i64 0, i64 %158
  %160 = load i32, i32* %159, align 4
  %161 = icmp slt i32 %160, 60
  br i1 %161, label %162, label %181

162:                                              ; preds = %156
  %163 = load i32, i32* %3, align 4
  %164 = sext i32 %163 to i64
  %165 = getelementptr inbounds [100 x i32], [100 x i32]* %10, i64 0, i64 %164
  %166 = load i32, i32* %165, align 4
  %167 = load i32, i32* %6, align 4
  %168 = sext i32 %167 to i64
  %169 = getelementptr inbounds [100 x i32], [100 x i32]* %11, i64 0, i64 %168
  store i32 %166, i32* %169, align 4
  %170 = load i32, i32* %6, align 4
  %171 = sext i32 %170 to i64
  %172 = getelementptr inbounds [100 x [2000 x i8]], [100 x [2000 x i8]]* %9, i64 0, i64 %171
  %173 = getelementptr inbounds [2000 x i8], [2000 x i8]* %172, i64 0, i64 0
  %174 = load i32, i32* %3, align 4
  %175 = sext i32 %174 to i64
  %176 = getelementptr inbounds [100 x [2000 x i8]], [100 x [2000 x i8]]* %7, i64 0, i64 %175
  %177 = getelementptr inbounds [2000 x i8], [2000 x i8]* %176, i64 0, i64 0
  %178 = call i8* @strcpy(i8* %173, i8* %177) #3
  %179 = load i32, i32* %6, align 4
  %180 = add nsw i32 %179, 1
  store i32 %180, i32* %6, align 4
  br label %181

181:                                              ; preds = %162, %156
  br label %182

182:                                              ; preds = %181
  %183 = load i32, i32* %3, align 4
  %184 = add nsw i32 %183, 1
  store i32 %184, i32* %3, align 4
  br label %152

185:                                              ; preds = %152
  store i32 0, i32* %3, align 4
  br label %186

186:                                              ; preds = %196, %185
  %187 = load i32, i32* %3, align 4
  %188 = load i32, i32* %6, align 4
  %189 = icmp slt i32 %187, %188
  br i1 %189, label %190, label %199

190:                                              ; preds = %186
  %191 = load i32, i32* %3, align 4
  %192 = sext i32 %191 to i64
  %193 = getelementptr inbounds [100 x [2000 x i8]], [100 x [2000 x i8]]* %9, i64 0, i64 %192
  %194 = getelementptr inbounds [2000 x i8], [2000 x i8]* %193, i64 0, i64 0
  %195 = call i32 (i8*, ...) @printf(i8* getelementptr inbounds ([4 x i8], [4 x i8]* @.str.2, i64 0, i64 0), i8* %194)
  br label %196

196:                                              ; preds = %190
  %197 = load i32, i32* %3, align 4
  %198 = add nsw i32 %197, 1
  store i32 %198, i32* %3, align 4
  br label %186

199:                                              ; preds = %186
  %200 = load i32, i32* %1, align 4
  ret i32 %200
}

declare dso_local i32 @__isoc99_scanf(i8*, ...) #1

; Function Attrs: nounwind
declare dso_local i8* @strcpy(i8*, i8*) #2

declare dso_local i32 @printf(i8*, ...) #1


!llvm.module.flags = !{!0}
!llvm.ident = !{!1}

!0 = !{i32 1, !"wchar_size", i32 4}
!1 = !{!"clang version 10.0.0-4ubuntu1 "}
